; Function Attrs: mustprogress nounwind uwtable
define hidden noundef i32 @jni_GetJavaVM(ptr noundef %0, ptr noundef %1) #0 {
  %3 = ptrtoint ptr %0 to i64
  %4 = add nsw i64 %3, -960
  %5 = inttoptr i64 %4 to ptr
  %6 = getelementptr inbounds i8, ptr %5, i64 1128
  %7 = load volatile i32, ptr %6, align 4
  tail call void asm sideeffect "", "~{memory},~{dirflag},~{fpsr},~{flags}"() #14, !srcloc !9
  %8 = add i32 %7, -57005
  %9 = icmp ult i32 %8, 2
  br i1 %9, label %10, label %_ZN10JavaThread27thread_from_jni_environmentEP7JNIEnv_.exit

10:                                               ; preds = %2
  tail call void @_ZN10JavaThread18block_if_vm_exitedEv(ptr noundef nonnull align 8 dereferenceable(1800) %5) #14
  br label %_ZN10JavaThread27thread_from_jni_environmentEP7JNIEnv_.exit

_ZN10JavaThread27thread_from_jni_environmentEP7JNIEnv_.exit: ; preds = %2, %10
  tail call void asm sideeffect ".altmacro\0A.macro _SDT_SIGN x\0A.pushsection .note.stapsdt,\22\22,\22note\22\0A.iflt \\x\0A.ascii \22-\22\0A.endif\0A.popsection\0A.endm\0A.macro _SDT_SIZE_ x\0A.pushsection .note.stapsdt,\22\22,\22note\22\0A.ascii \22\\x\22\0A.popsection\0A.endm\0A.macro _SDT_SIZE x\0A_SDT_SIZE_ %((-(-\\x*((-\\x>0)-(-\\x<0))))>>8)\0A.endm\0A.macro _SDT_TYPE_ x\0A.pushsection .note.stapsdt,\22\22,\22note\22\0A.ifc 8,\\x\0A.ascii \22f\22\0A.endif\0A.ascii \22@\22\0A.popsection\0A.endm\0A.macro _SDT_TYPE x\0A_SDT_TYPE_ %((\\x)&(0xff))\0A.endm\0A990: nop\0A.pushsection .note.stapsdt,\22?\22,\22note\22\0A.balign 4\0A.4byte 992f-991f,994f-993f,3\0A991: .asciz \22stapsdt\22\0A992: .balign 4\0A993: .8byte 990b\0A.8byte _.stapsdt.base\0A.8byte 0\0A.asciz \22hotspot_jni\22\0A.asciz \22GetJavaVM__entry\22\0A_SDT_SIGN ${0:n}\0A_SDT_SIZE ${0:n}\0A_SDT_TYPE ${0:n}\0A.ascii \22$1\22\0A.ascii \22\\x20\22\0A_SDT_SIGN ${2:n}\0A_SDT_SIZE ${2:n}\0A_SDT_TYPE ${2:n}\0A.ascii \22$3\22\0A.ascii \22\\x00\22\0A.purgem _SDT_SIGN\0A.purgem _SDT_SIZE_\0A.purgem _SDT_SIZE\0A.purgem _SDT_TYPE_\0A.purgem _SDT_TYPE\0A994: .balign 4\0A.popsection\0A", "n,norfxy,n,norfxy,~{dirflag},~{fpsr},~{flags}"(i32 -2053, ptr %0, i32 -2053, ptr %1) #14, !srcloc !937
  tail call void asm sideeffect ".ifndef _.stapsdt.base\0A.pushsection .stapsdt.base,\22aG\22,\22progbits\22,.stapsdt.base,comdat\0A.weak _.stapsdt.base\0A.hidden _.stapsdt.base\0A_.stapsdt.base: .space 1\0A.size _.stapsdt.base,1\0A.popsection\0A.endif\0A", "~{dirflag},~{fpsr},~{flags}"() #14, !srcloc !938
  store ptr @main_vm, ptr %1, align 8
  tail call void asm sideeffect ".altmacro\0A.macro _SDT_SIGN x\0A.pushsection .note.stapsdt,\22\22,\22note\22\0A.iflt \\x\0A.ascii \22-\22\0A.endif\0A.popsection\0A.endm\0A.macro _SDT_SIZE_ x\0A.pushsection .note.stapsdt,\22\22,\22note\22\0A.ascii \22\\x\22\0A.popsection\0A.endm\0A.macro _SDT_SIZE x\0A_SDT_SIZE_ %((-(-\\x*((-\\x>0)-(-\\x<0))))>>8)\0A.endm\0A.macro _SDT_TYPE_ x\0A.pushsection .note.stapsdt,\22\22,\22note\22\0A.ifc 8,\\x\0A.ascii \22f\22\0A.endif\0A.ascii \22@\22\0A.popsection\0A.endm\0A.macro _SDT_TYPE x\0A_SDT_TYPE_ %((\\x)&(0xff))\0A.endm\0A990: nop\0A.pushsection .note.stapsdt,\22?\22,\22note\22\0A.balign 4\0A.4byte 992f-991f,994f-993f,3\0A991: .asciz \22stapsdt\22\0A992: .balign 4\0A993: .8byte 990b\0A.8byte _.stapsdt.base\0A.8byte 0\0A.asciz \22hotspot_jni\22\0A.asciz \22GetJavaVM__return\22\0A_SDT_SIGN ${0:n}\0A_SDT_SIZE ${0:n}\0A_SDT_TYPE ${0:n}\0A.ascii \22$1\22\0A.ascii \22\\x00\22\0A.purgem _SDT_SIGN\0A.purgem _SDT_SIZE_\0A.purgem _SDT_SIZE\0A.purgem _SDT_TYPE_\0A.purgem _SDT_TYPE\0A994: .balign 4\0A.popsection\0A", "n,norfxy,~{dirflag},~{fpsr},~{flags}"(i32 1025, i32 0) #14, !srcloc !939
  tail call void asm sideeffect ".ifndef _.stapsdt.base\0A.pushsection .stapsdt.base,\22aG\22,\22progbits\22,.stapsdt.base,comdat\0A.weak _.stapsdt.base\0A.hidden _.stapsdt.base\0A_.stapsdt.base: .space 1\0A.size _.stapsdt.base,1\0A.popsection\0A.endif\0A", "~{dirflag},~{fpsr},~{flags}"() #14, !srcloc !940
  ret i32 0
}